target datalayout = "e-m:e-p270:32:32-p271:32:32-p272:64:64-i64:64-i128:128-f80:128-n8:16:32:64-S128"
target triple = "x86_64-pc-linux-gnu"

@stderr = external global ptr, align 8
@.str.17 = private unnamed_addr constant [15 x i8] c"mget/%zu @%d: \00", align 1

; Function Attrs: nounwind uwtable
define internal void @mdebug(i32 noundef %0, ptr noundef %1, i64 noundef %2) #0 {
  %4 = alloca i32, align 4
  %5 = alloca ptr, align 8
  %6 = alloca i64, align 8
  store i32 %0, ptr %4, align 4
  store ptr %1, ptr %5, align 8
  store i64 %2, ptr %6, align 8
  %7 = load ptr, ptr @stderr, align 8
  %8 = load i64, ptr %6, align 8
  %9 = load i32, ptr %4, align 4
  %10 = call i32 (ptr, ptr, ...) @fprintf(ptr noundef %7, ptr noundef @.str.17, i64 noundef %8, i32 noundef %9) #10
  %11 = load ptr, ptr @stderr, align 8
  %12 = load ptr, ptr %5, align 8
  %13 = load i64, ptr %6, align 8
  call void @file_showstr(ptr noundef %11, ptr noundef %12, i64 noundef %13)
  %14 = load ptr, ptr @stderr, align 8
  %15 = call i32 @fputc(i32 noundef 10, ptr noundef %14)
  %16 = load ptr, ptr @stderr, align 8
  %17 = call i32 @fputc(i32 noundef 10, ptr noundef %16)
  ret void
}