; Function Attrs: nounwind uwtable
define internal fastcc void @mdebug(i32 noundef %0, ptr noundef %1) unnamed_addr #0 {
  %3 = load ptr, ptr @stderr, align 8
  %4 = tail call i32 (ptr, ptr, ...) @fprintf(ptr noundef %3, ptr noundef nonnull @.str.17, i64 noundef 128, i32 noundef %0) #22
  %5 = load ptr, ptr @stderr, align 8
  tail call void @file_showstr(ptr noundef %5, ptr noundef %1, i64 noundef 128) #20
  %6 = load ptr, ptr @stderr, align 8
  %7 = tail call i32 @fputc(i32 noundef 10, ptr noundef %6)
  %8 = load ptr, ptr @stderr, align 8
  %9 = tail call i32 @fputc(i32 noundef 10, ptr noundef %8)
  ret void
}